target datalayout = "e-m:e-p270:32:32-p271:32:32-p272:64:64-i64:64-i128:128-f80:128-n8:16:32:64-S128"
target triple = "x86_64-pc-linux-gnu"

%struct.linenoiseState = type { i32, i32, ptr, i64, ptr, ptr, i64, i64, i64, i64, i64, i64, i32 }

@history_len = internal global i32 0, align 4
@history = internal global ptr null, align 8

; Function Attrs: nounwind uwtable
define dso_local void @linenoiseEditHistoryNext(ptr noundef %0, i32 noundef %1) #0 {
  %3 = alloca ptr, align 8
  %4 = alloca i32, align 4
  store ptr %0, ptr %3, align 8, !tbaa !23
  store i32 %1, ptr %4, align 4, !tbaa !4
  %5 = load i32, ptr @history_len, align 4, !tbaa !4
  %6 = icmp sgt i32 %5, 1
  br i1 %6, label %7, label %92

7:                                                ; preds = %2
  %8 = load ptr, ptr @history, align 8, !tbaa !20
  %9 = load i32, ptr @history_len, align 4, !tbaa !4
  %10 = sub nsw i32 %9, 1
  %11 = load ptr, ptr %3, align 8, !tbaa !23
  %12 = getelementptr inbounds nuw %struct.linenoiseState, ptr %11, i32 0, i32 12
  %13 = load i32, ptr %12, align 8, !tbaa !37
  %14 = sub nsw i32 %10, %13
  %15 = sext i32 %14 to i64
  %16 = getelementptr inbounds ptr, ptr %8, i64 %15
  %17 = load ptr, ptr %16, align 8, !tbaa !12
  call void @free(ptr noundef %17) #12
  %18 = load ptr, ptr %3, align 8, !tbaa !23
  %19 = getelementptr inbounds nuw %struct.linenoiseState, ptr %18, i32 0, i32 2
  %20 = load ptr, ptr %19, align 8, !tbaa !28
  %21 = call noalias ptr @strdup(ptr noundef %20) #12
  %22 = load ptr, ptr @history, align 8, !tbaa !20
  %23 = load i32, ptr @history_len, align 4, !tbaa !4
  %24 = sub nsw i32 %23, 1
  %25 = load ptr, ptr %3, align 8, !tbaa !23
  %26 = getelementptr inbounds nuw %struct.linenoiseState, ptr %25, i32 0, i32 12
  %27 = load i32, ptr %26, align 8, !tbaa !37
  %28 = sub nsw i32 %24, %27
  %29 = sext i32 %28 to i64
  %30 = getelementptr inbounds ptr, ptr %22, i64 %29
  store ptr %21, ptr %30, align 8, !tbaa !12
  %31 = load i32, ptr %4, align 4, !tbaa !4
  %32 = icmp eq i32 %31, 1
  %33 = select i1 %32, i32 1, i32 -1
  %34 = load ptr, ptr %3, align 8, !tbaa !23
  %35 = getelementptr inbounds nuw %struct.linenoiseState, ptr %34, i32 0, i32 12
  %36 = load i32, ptr %35, align 8, !tbaa !37
  %37 = add nsw i32 %36, %33
  store i32 %37, ptr %35, align 8, !tbaa !37
  %38 = load ptr, ptr %3, align 8, !tbaa !23
  %39 = getelementptr inbounds nuw %struct.linenoiseState, ptr %38, i32 0, i32 12
  %40 = load i32, ptr %39, align 8, !tbaa !37
  %41 = icmp slt i32 %40, 0
  br i1 %41, label %42, label %45

42:                                               ; preds = %7
  %43 = load ptr, ptr %3, align 8, !tbaa !23
  %44 = getelementptr inbounds nuw %struct.linenoiseState, ptr %43, i32 0, i32 12
  store i32 0, ptr %44, align 8, !tbaa !37
  br label %92

45:                                               ; preds = %7
  %46 = load ptr, ptr %3, align 8, !tbaa !23
  %47 = getelementptr inbounds nuw %struct.linenoiseState, ptr %46, i32 0, i32 12
  %48 = load i32, ptr %47, align 8, !tbaa !37
  %49 = load i32, ptr @history_len, align 4, !tbaa !4
  %50 = icmp sge i32 %48, %49
  br i1 %50, label %51, label %56

51:                                               ; preds = %45
  %52 = load i32, ptr @history_len, align 4, !tbaa !4
  %53 = sub nsw i32 %52, 1
  %54 = load ptr, ptr %3, align 8, !tbaa !23
  %55 = getelementptr inbounds nuw %struct.linenoiseState, ptr %54, i32 0, i32 12
  store i32 %53, ptr %55, align 8, !tbaa !37
  br label %92

56:                                               ; preds = %45
  br label %57

57:                                               ; preds = %56
  %58 = load ptr, ptr %3, align 8, !tbaa !23
  %59 = getelementptr inbounds nuw %struct.linenoiseState, ptr %58, i32 0, i32 2
  %60 = load ptr, ptr %59, align 8, !tbaa !28
  %61 = load ptr, ptr @history, align 8, !tbaa !20
  %62 = load i32, ptr @history_len, align 4, !tbaa !4
  %63 = sub nsw i32 %62, 1
  %64 = load ptr, ptr %3, align 8, !tbaa !23
  %65 = getelementptr inbounds nuw %struct.linenoiseState, ptr %64, i32 0, i32 12
  %66 = load i32, ptr %65, align 8, !tbaa !37
  %67 = sub nsw i32 %63, %66
  %68 = sext i32 %67 to i64
  %69 = getelementptr inbounds ptr, ptr %61, i64 %68
  %70 = load ptr, ptr %69, align 8, !tbaa !12
  %71 = load ptr, ptr %3, align 8, !tbaa !23
  %72 = getelementptr inbounds nuw %struct.linenoiseState, ptr %71, i32 0, i32 3
  %73 = load i64, ptr %72, align 8, !tbaa !33
  %74 = call ptr @strncpy(ptr noundef %60, ptr noundef %70, i64 noundef %73) #12
  %75 = load ptr, ptr %3, align 8, !tbaa !23
  %76 = getelementptr inbounds nuw %struct.linenoiseState, ptr %75, i32 0, i32 2
  %77 = load ptr, ptr %76, align 8, !tbaa !28
  %78 = load ptr, ptr %3, align 8, !tbaa !23
  %79 = getelementptr inbounds nuw %struct.linenoiseState, ptr %78, i32 0, i32 3
  %80 = load i64, ptr %79, align 8, !tbaa !33
  %81 = sub i64 %80, 1
  %82 = getelementptr inbounds nuw i8, ptr %77, i64 %81
  store i8 0, ptr %82, align 1, !tbaa !29
  %83 = load ptr, ptr %3, align 8, !tbaa !23
  %84 = getelementptr inbounds nuw %struct.linenoiseState, ptr %83, i32 0, i32 2
  %85 = load ptr, ptr %84, align 8, !tbaa !28
  %86 = call i64 @strlen(ptr noundef %85) #13
  %87 = load ptr, ptr %3, align 8, !tbaa !23
  %88 = getelementptr inbounds nuw %struct.linenoiseState, ptr %87, i32 0, i32 7
  store i64 %86, ptr %88, align 8, !tbaa !34
  %89 = load ptr, ptr %3, align 8, !tbaa !23
  %90 = getelementptr inbounds nuw %struct.linenoiseState, ptr %89, i32 0, i32 9
  store i64 %86, ptr %90, align 8, !tbaa !25
  %91 = load ptr, ptr %3, align 8, !tbaa !23
  call void @refreshLine(ptr noundef %91)
  br label %92

92:                                               ; preds = %42, %51, %57, %2
  ret void
}