; Function Attrs: nounwind uwtable
define dso_local void @linenoiseEditHistoryNext(ptr noundef captures(none) %0, i32 noundef %1) local_unnamed_addr #10 {
  %3 = load i32, ptr @history_len, align 4, !tbaa !4
  %4 = icmp sgt i32 %3, 1
  br i1 %4, label %5, label %48

5:                                                ; preds = %2
  %6 = load ptr, ptr @history, align 8, !tbaa !40
  %7 = getelementptr inbounds nuw i8, ptr %0, i64 88
  %8 = load i32, ptr %7, align 8, !tbaa !41
  %9 = xor i32 %8, -1
  %10 = add i32 %3, %9
  %11 = sext i32 %10 to i64
  %12 = getelementptr inbounds ptr, ptr %6, i64 %11
  %13 = load ptr, ptr %12, align 8, !tbaa !15
  tail call void @free(ptr noundef %13) #24
  %14 = getelementptr inbounds nuw i8, ptr %0, i64 8
  %15 = load ptr, ptr %14, align 8, !tbaa !20
  %16 = tail call noalias ptr @strdup(ptr noundef %15) #24
  %17 = load i32, ptr %7, align 8, !tbaa !41
  %18 = xor i32 %17, -1
  %19 = add i32 %3, %18
  %20 = sext i32 %19 to i64
  %21 = getelementptr inbounds ptr, ptr %6, i64 %20
  store ptr %16, ptr %21, align 8, !tbaa !15
  %22 = icmp eq i32 %1, 1
  %23 = select i1 %22, i32 1, i32 -1
  %24 = add nsw i32 %17, %23
  store i32 %24, ptr %7, align 8, !tbaa !41
  %25 = icmp slt i32 %24, 0
  br i1 %25, label %26, label %27

26:                                               ; preds = %5
  store i32 0, ptr %7, align 8, !tbaa !41
  br label %48

27:                                               ; preds = %5
  %.not = icmp samesign ult i32 %24, %3
  br i1 %.not, label %30, label %28

28:                                               ; preds = %27
  %29 = add nsw i32 %3, -1
  store i32 %29, ptr %7, align 8, !tbaa !41
  br label %48

30:                                               ; preds = %27
  %31 = load ptr, ptr %14, align 8, !tbaa !20
  %32 = xor i32 %24, -1
  %33 = add nsw i32 %3, %32
  %34 = sext i32 %33 to i64
  %35 = getelementptr inbounds ptr, ptr %6, i64 %34
  %36 = load ptr, ptr %35, align 8, !tbaa !15
  %37 = getelementptr inbounds nuw i8, ptr %0, i64 16
  %38 = load i64, ptr %37, align 8, !tbaa !25
  %39 = tail call ptr @strncpy(ptr noundef %31, ptr noundef %36, i64 noundef %38) #24
  %40 = load ptr, ptr %14, align 8, !tbaa !20
  %41 = load i64, ptr %37, align 8, !tbaa !25
  %42 = getelementptr i8, ptr %40, i64 %41
  %43 = getelementptr i8, ptr %42, i64 -1
  store i8 0, ptr %43, align 1, !tbaa !21
  %44 = load ptr, ptr %14, align 8, !tbaa !20
  %45 = tail call i64 @strlen(ptr noundef nonnull dereferenceable(1) %44) #25
  %46 = getelementptr inbounds nuw i8, ptr %0, i64 48
  store i64 %45, ptr %46, align 8, !tbaa !26
  %47 = getelementptr inbounds nuw i8, ptr %0, i64 64
  store i64 %45, ptr %47, align 8, !tbaa !17
  tail call fastcc void @refreshLine(ptr noundef nonnull %0)
  br label %48

48:                                               ; preds = %30, %28, %26, %2
  ret void
}